; Function Attrs: nounwind uwtable
define ptr @l_Lake_Package_uploadRelease___lambda__1(ptr noundef %0, ptr noundef %1, ptr noundef readnone captures(none) %2, ptr noundef %3, ptr noundef %4) local_unnamed_addr #0 {
  %6 = tail call ptr @lean_array_mk(ptr noundef %0) #5
  %7 = load ptr, ptr @l_Lake_env___closed__1, align 8, !tbaa !4
  %8 = load ptr, ptr @l_Lake_Package_uploadRelease___lambda__1___closed__1, align 8, !tbaa !4
  tail call void @lean_inc_heartbeat() #5
  %9 = tail call noalias ptr @mi_malloc_small(i64 noundef 56) #5
  %10 = icmp eq ptr %9, null
  br i1 %10, label %11, label %lean_alloc_ctor.exit

11:                                               ; preds = %5
  tail call void @lean_internal_panic_out_of_memory() #6
  unreachable

lean_alloc_ctor.exit:                             ; preds = %5
  %12 = getelementptr inbounds nuw i8, ptr %9, i64 4
  %13 = getelementptr inbounds nuw i8, ptr %9, i64 48
  store i64 1, ptr %13, align 8, !tbaa !8
  store i32 1, ptr %9, align 4, !tbaa !10
  store i32 327736, ptr %12, align 4
  %14 = getelementptr inbounds nuw i8, ptr %9, i64 8
  store ptr %7, ptr %14, align 8, !tbaa !4
  %15 = getelementptr inbounds nuw i8, ptr %9, i64 16
  store ptr %8, ptr %15, align 8, !tbaa !4
  %16 = getelementptr inbounds nuw i8, ptr %9, i64 24
  store ptr %1, ptr %16, align 8, !tbaa !4
  %17 = getelementptr inbounds nuw i8, ptr %9, i64 32
  store ptr inttoptr (i64 1 to ptr), ptr %17, align 8, !tbaa !4
  %18 = getelementptr inbounds nuw i8, ptr %9, i64 40
  store ptr %6, ptr %18, align 8, !tbaa !4
  %19 = tail call ptr @l_Lake_proc(ptr noundef nonnull %9, i8 noundef zeroext 0, ptr noundef %3, ptr noundef %4) #5
  ret ptr %19
}